; Function Attrs: null_pointer_is_valid sspstrong uwtable
define internal i32 @dissect_CAP_U_ABORT_REASON_PDU(ptr noundef %0, ptr noundef %1, ptr noundef %2, ptr readnone captures(none) %3) #0 {
  %5 = alloca %struct._asn1_ctx_t, align 8
  call void @llvm.lifetime.start.p0(i64 208, ptr nonnull %5) #12
  call void @asn1_ctx_init(ptr noundef nonnull %5, i32 noundef 0, i1 noundef zeroext true, ptr noundef %1)
  %6 = load i32, ptr @hf_camel_CAP_U_ABORT_REASON_PDU, align 4
  %7 = call i32 @dissect_ber_integer(i1 noundef zeroext false, ptr noundef nonnull %5, ptr noundef %2, ptr noundef %0, i32 noundef 0, i32 noundef %6, ptr noundef null)
  call void @llvm.lifetime.end.p0(i64 208, ptr nonnull %5) #12
  ret i32 %7
}